target datalayout = "e-m:e-p270:32:32-p271:32:32-p272:64:64-i64:64-i128:128-f80:128-n8:16:32:64-S128"
target triple = "x86_64-pc-linux-gnu"

%struct._header_field_info = type { ptr, ptr, i32, i32, ptr, i64, ptr, i32, i32, i32, i32, ptr }

@ieee802154_create_pie_tree.tlv_fields = internal constant [4 x ptr] [ptr @hf_ieee802154_payload_ie_type, ptr @hf_ieee802154_payload_ie_id, ptr @hf_ieee802154_payload_ie_length, ptr null], align 16
@hf_ieee802154_payload_ie_tlv = internal global i32 0, align 4
@ett_ieee802154_payload_ie_tlv = internal global i32 0, align 4
@.str.31 = private unnamed_addr constant [5 x i8] c", %s\00", align 1

; Function Attrs: null_pointer_is_valid sspstrong uwtable
define hidden ptr @ieee802154_create_pie_tree(ptr noundef %0, ptr noundef %1, i32 noundef %2, i32 noundef %3) #0 {
  %5 = alloca ptr, align 8
  %6 = alloca ptr, align 8
  %7 = alloca i32, align 4
  %8 = alloca i32, align 4
  %9 = alloca ptr, align 8
  %10 = alloca ptr, align 8
  %11 = alloca ptr, align 8
  store ptr %0, ptr %5, align 8
  store ptr %1, ptr %6, align 8
  store i32 %2, ptr %7, align 4
  store i32 %3, ptr %8, align 4
  call void @llvm.lifetime.start.p0(i64 8, ptr %9) #17
  call void @llvm.lifetime.start.p0(i64 8, ptr %10) #17
  call void @llvm.lifetime.start.p0(i64 8, ptr %11) #17
  %12 = load ptr, ptr %6, align 8
  %13 = load i32, ptr %7, align 4
  %14 = load ptr, ptr %5, align 8
  %15 = load ptr, ptr %5, align 8
  %16 = call i32 @tvb_reported_length(ptr noundef %15)
  %17 = call ptr @proto_tree_add_item(ptr noundef %12, i32 noundef %13, ptr noundef %14, i32 noundef 0, i32 noundef %16, i32 noundef 0)
  store ptr %17, ptr %9, align 8
  %18 = load ptr, ptr %9, align 8
  %19 = load i32, ptr %8, align 4
  %20 = call ptr @proto_item_add_subtree(ptr noundef %18, i32 noundef %19)
  store ptr %20, ptr %10, align 8
  %21 = load ptr, ptr %10, align 8
  %22 = load ptr, ptr %5, align 8
  %23 = load i32, ptr @hf_ieee802154_payload_ie_tlv, align 4
  %24 = load i32, ptr @ett_ieee802154_payload_ie_tlv, align 4
  %25 = call ptr @proto_tree_add_bitmask_with_flags(ptr noundef %21, ptr noundef %22, i32 noundef 0, i32 noundef %23, i32 noundef %24, ptr noundef @ieee802154_create_pie_tree.tlv_fields, i32 noundef -2147483648, i32 noundef 0)
  %26 = load i32, ptr %7, align 4
  %27 = call ptr @proto_registrar_get_nth(i32 noundef %26)
  store ptr %27, ptr %11, align 8
  %28 = load ptr, ptr %11, align 8
  %29 = icmp ne ptr %28, null
  br i1 %29, label %30, label %41

30:                                               ; preds = %4
  %31 = load ptr, ptr %11, align 8
  %32 = getelementptr inbounds nuw %struct._header_field_info, ptr %31, i32 0, i32 0
  %33 = load ptr, ptr %32, align 8
  %34 = icmp ne ptr %33, null
  br i1 %34, label %35, label %41

35:                                               ; preds = %30
  %36 = load ptr, ptr %6, align 8
  %37 = call ptr @proto_tree_get_parent(ptr noundef %36)
  %38 = load ptr, ptr %11, align 8
  %39 = getelementptr inbounds nuw %struct._header_field_info, ptr %38, i32 0, i32 0
  %40 = load ptr, ptr %39, align 8
  call void (ptr, ptr, ...) @proto_item_append_text(ptr noundef %37, ptr noundef @.str.31, ptr noundef %40)
  br label %41

41:                                               ; preds = %35, %30, %4
  %42 = load ptr, ptr %10, align 8
  call void @llvm.lifetime.end.p0(i64 8, ptr %11) #17
  call void @llvm.lifetime.end.p0(i64 8, ptr %10) #17
  call void @llvm.lifetime.end.p0(i64 8, ptr %9) #17
  ret ptr %42
}